target datalayout = "e-m:e-p270:32:32-p271:32:32-p272:64:64-i64:64-i128:128-f80:128-n8:16:32:64-S128"
target triple = "x86_64-pc-linux-gnu"

%struct.VP9DSPContext = type { [4 x [15 x ptr]], [5 x [4 x ptr]], [3 x [2 x ptr]], [2 x ptr], [2 x [2 x [2 x ptr]]], [5 x [4 x [2 x [2 x [2 x ptr]]]]], [5 x [4 x [2 x ptr]]] }

; Function Attrs: cold nounwind optsize uwtable
define internal void @vp9dsp_loopfilter_init(ptr noundef %0) #0 {
  %2 = alloca ptr, align 8
  store ptr %0, ptr %2, align 8, !tbaa !4
  %3 = load ptr, ptr %2, align 8, !tbaa !4
  %4 = getelementptr inbounds nuw %struct.VP9DSPContext, ptr %3, i32 0, i32 2
  %5 = getelementptr inbounds [3 x [2 x ptr]], ptr %4, i64 0, i64 0
  %6 = getelementptr inbounds [2 x ptr], ptr %5, i64 0, i64 0
  store ptr @loop_filter_h_4_8_c, ptr %6, align 8, !tbaa !9
  %7 = load ptr, ptr %2, align 8, !tbaa !4
  %8 = getelementptr inbounds nuw %struct.VP9DSPContext, ptr %7, i32 0, i32 2
  %9 = getelementptr inbounds [3 x [2 x ptr]], ptr %8, i64 0, i64 0
  %10 = getelementptr inbounds [2 x ptr], ptr %9, i64 0, i64 1
  store ptr @loop_filter_v_4_8_c, ptr %10, align 8, !tbaa !9
  %11 = load ptr, ptr %2, align 8, !tbaa !4
  %12 = getelementptr inbounds nuw %struct.VP9DSPContext, ptr %11, i32 0, i32 2
  %13 = getelementptr inbounds [3 x [2 x ptr]], ptr %12, i64 0, i64 1
  %14 = getelementptr inbounds [2 x ptr], ptr %13, i64 0, i64 0
  store ptr @loop_filter_h_8_8_c, ptr %14, align 8, !tbaa !9
  %15 = load ptr, ptr %2, align 8, !tbaa !4
  %16 = getelementptr inbounds nuw %struct.VP9DSPContext, ptr %15, i32 0, i32 2
  %17 = getelementptr inbounds [3 x [2 x ptr]], ptr %16, i64 0, i64 1
  %18 = getelementptr inbounds [2 x ptr], ptr %17, i64 0, i64 1
  store ptr @loop_filter_v_8_8_c, ptr %18, align 8, !tbaa !9
  %19 = load ptr, ptr %2, align 8, !tbaa !4
  %20 = getelementptr inbounds nuw %struct.VP9DSPContext, ptr %19, i32 0, i32 2
  %21 = getelementptr inbounds [3 x [2 x ptr]], ptr %20, i64 0, i64 2
  %22 = getelementptr inbounds [2 x ptr], ptr %21, i64 0, i64 0
  store ptr @loop_filter_h_16_8_c, ptr %22, align 8, !tbaa !9
  %23 = load ptr, ptr %2, align 8, !tbaa !4
  %24 = getelementptr inbounds nuw %struct.VP9DSPContext, ptr %23, i32 0, i32 2
  %25 = getelementptr inbounds [3 x [2 x ptr]], ptr %24, i64 0, i64 2
  %26 = getelementptr inbounds [2 x ptr], ptr %25, i64 0, i64 1
  store ptr @loop_filter_v_16_8_c, ptr %26, align 8, !tbaa !9
  %27 = load ptr, ptr %2, align 8, !tbaa !4
  %28 = getelementptr inbounds nuw %struct.VP9DSPContext, ptr %27, i32 0, i32 3
  %29 = getelementptr inbounds [2 x ptr], ptr %28, i64 0, i64 0
  store ptr @loop_filter_h_16_16_c, ptr %29, align 8, !tbaa !9
  %30 = load ptr, ptr %2, align 8, !tbaa !4
  %31 = getelementptr inbounds nuw %struct.VP9DSPContext, ptr %30, i32 0, i32 3
  %32 = getelementptr inbounds [2 x ptr], ptr %31, i64 0, i64 1
  store ptr @loop_filter_v_16_16_c, ptr %32, align 8, !tbaa !9
  %33 = load ptr, ptr %2, align 8, !tbaa !4
  %34 = getelementptr inbounds nuw %struct.VP9DSPContext, ptr %33, i32 0, i32 4
  %35 = getelementptr inbounds [2 x [2 x [2 x ptr]]], ptr %34, i64 0, i64 0
  %36 = getelementptr inbounds [2 x [2 x ptr]], ptr %35, i64 0, i64 0
  %37 = getelementptr inbounds [2 x ptr], ptr %36, i64 0, i64 0
  store ptr @loop_filter_h_44_16_c, ptr %37, align 8, !tbaa !9
  %38 = load ptr, ptr %2, align 8, !tbaa !4
  %39 = getelementptr inbounds nuw %struct.VP9DSPContext, ptr %38, i32 0, i32 4
  %40 = getelementptr inbounds [2 x [2 x [2 x ptr]]], ptr %39, i64 0, i64 0
  %41 = getelementptr inbounds [2 x [2 x ptr]], ptr %40, i64 0, i64 0
  %42 = getelementptr inbounds [2 x ptr], ptr %41, i64 0, i64 1
  store ptr @loop_filter_v_44_16_c, ptr %42, align 8, !tbaa !9
  %43 = load ptr, ptr %2, align 8, !tbaa !4
  %44 = getelementptr inbounds nuw %struct.VP9DSPContext, ptr %43, i32 0, i32 4
  %45 = getelementptr inbounds [2 x [2 x [2 x ptr]]], ptr %44, i64 0, i64 0
  %46 = getelementptr inbounds [2 x [2 x ptr]], ptr %45, i64 0, i64 1
  %47 = getelementptr inbounds [2 x ptr], ptr %46, i64 0, i64 0
  store ptr @loop_filter_h_48_16_c, ptr %47, align 8, !tbaa !9
  %48 = load ptr, ptr %2, align 8, !tbaa !4
  %49 = getelementptr inbounds nuw %struct.VP9DSPContext, ptr %48, i32 0, i32 4
  %50 = getelementptr inbounds [2 x [2 x [2 x ptr]]], ptr %49, i64 0, i64 0
  %51 = getelementptr inbounds [2 x [2 x ptr]], ptr %50, i64 0, i64 1
  %52 = getelementptr inbounds [2 x ptr], ptr %51, i64 0, i64 1
  store ptr @loop_filter_v_48_16_c, ptr %52, align 8, !tbaa !9
  %53 = load ptr, ptr %2, align 8, !tbaa !4
  %54 = getelementptr inbounds nuw %struct.VP9DSPContext, ptr %53, i32 0, i32 4
  %55 = getelementptr inbounds [2 x [2 x [2 x ptr]]], ptr %54, i64 0, i64 1
  %56 = getelementptr inbounds [2 x [2 x ptr]], ptr %55, i64 0, i64 0
  %57 = getelementptr inbounds [2 x ptr], ptr %56, i64 0, i64 0
  store ptr @loop_filter_h_84_16_c, ptr %57, align 8, !tbaa !9
  %58 = load ptr, ptr %2, align 8, !tbaa !4
  %59 = getelementptr inbounds nuw %struct.VP9DSPContext, ptr %58, i32 0, i32 4
  %60 = getelementptr inbounds [2 x [2 x [2 x ptr]]], ptr %59, i64 0, i64 1
  %61 = getelementptr inbounds [2 x [2 x ptr]], ptr %60, i64 0, i64 0
  %62 = getelementptr inbounds [2 x ptr], ptr %61, i64 0, i64 1
  store ptr @loop_filter_v_84_16_c, ptr %62, align 8, !tbaa !9
  %63 = load ptr, ptr %2, align 8, !tbaa !4
  %64 = getelementptr inbounds nuw %struct.VP9DSPContext, ptr %63, i32 0, i32 4
  %65 = getelementptr inbounds [2 x [2 x [2 x ptr]]], ptr %64, i64 0, i64 1
  %66 = getelementptr inbounds [2 x [2 x ptr]], ptr %65, i64 0, i64 1
  %67 = getelementptr inbounds [2 x ptr], ptr %66, i64 0, i64 0
  store ptr @loop_filter_h_88_16_c, ptr %67, align 8, !tbaa !9
  %68 = load ptr, ptr %2, align 8, !tbaa !4
  %69 = getelementptr inbounds nuw %struct.VP9DSPContext, ptr %68, i32 0, i32 4
  %70 = getelementptr inbounds [2 x [2 x [2 x ptr]]], ptr %69, i64 0, i64 1
  %71 = getelementptr inbounds [2 x [2 x ptr]], ptr %70, i64 0, i64 1
  %72 = getelementptr inbounds [2 x ptr], ptr %71, i64 0, i64 1
  store ptr @loop_filter_v_88_16_c, ptr %72, align 8, !tbaa !9
  ret void
}